target datalayout = "e-m:e-p270:32:32-p271:32:32-p272:64:64-i64:64-i128:128-f80:128-n8:16:32:64-S128"
target triple = "x86_64-pc-linux-gnu"

%struct.archive_read = type { %struct.archive, ptr, i32, i64, i64, %struct.archive_read_client, [16 x %struct.archive_read_filter_bidder], ptr, i32, i64, i32, i32, [16 x %struct.archive_format_descriptor], ptr, ptr, ptr, %struct.anon }
%struct.archive = type { i32, i32, ptr, i32, ptr, i32, i32, ptr, %struct.archive_string, ptr, i32, i32, ptr, ptr, i64, i64, i64, i8, i64 }
%struct.archive_string = type { ptr, i64, i64 }
%struct.archive_read_client = type { ptr, ptr, ptr, ptr, ptr, ptr, i32, i32, i64, ptr }
%struct.archive_read_filter_bidder = type { ptr, ptr, ptr }
%struct.archive_format_descriptor = type { ptr, ptr, ptr, ptr, ptr, ptr, ptr, ptr, ptr, ptr, ptr }
%struct.anon = type { ptr, ptr, i32, ptr, ptr }
%struct.rar5 = type { i32, i32, i32, i32, i64, i64, %struct.generic_header, %struct.main_header, %struct.comp_state, %struct.file_header, %struct.bit_reader, %struct.multivolume, %struct.compressed_block_header, i32, i32 }
%struct.generic_header = type { i8, i32, i32 }
%struct.main_header = type { i8, i32 }
%struct.comp_state = type { i8, i32, i32, i32, i64, ptr, ptr, ptr, i64, i64, i64, i64, i64, i64, i32, %struct.decode_table, %struct.decode_table, %struct.decode_table, %struct.decode_table, %struct.decode_table, %struct.cdeque, i64, i64, [4 x i32], [2 x %struct.data_ready] }
%struct.decode_table = type { i32, [16 x i32], [16 x i32], i32, [1024 x i8], [1024 x i16], [306 x i16] }
%struct.cdeque = type { i16, i16, i16, i16, ptr }
%struct.data_ready = type { i8, ptr, i64, i64 }
%struct.file_header = type { i64, i64, i64, i64, i8, i64, i64, i64, i32, i32, i32, [32 x i8], %struct.blake2sp_state__, i8, i64, i64, i64 }
%struct.blake2sp_state__ = type { [8 x [1 x %struct.blake2s_state__]], [1 x %struct.blake2s_state__], [512 x i8], i64, i64 }
%struct.blake2s_state__ = type { [8 x i32], [2 x i32], [2 x i32], [64 x i8], i64, i64, i8 }
%struct.bit_reader = type { i8, i32 }
%struct.multivolume = type { i32, ptr }
%struct.compressed_block_header = type { i8, i8 }

; Function Attrs: nounwind uwtable
define internal void @cdeque_pop_front_fast(ptr noundef %0, ptr noundef %1) #0 {
  %3 = alloca ptr, align 8
  %4 = alloca ptr, align 8
  store ptr %0, ptr %3, align 8, !tbaa !68
  store ptr %1, ptr %4, align 8, !tbaa !40
  %5 = load ptr, ptr %3, align 8, !tbaa !68
  %6 = getelementptr inbounds nuw %struct.cdeque, ptr %5, i32 0, i32 4
  %7 = load ptr, ptr %6, align 8, !tbaa !71
  %8 = load ptr, ptr %3, align 8, !tbaa !68
  %9 = getelementptr inbounds nuw %struct.cdeque, ptr %8, i32 0, i32 0
  %10 = load i16, ptr %9, align 8, !tbaa !73
  %11 = zext i16 %10 to i64
  %12 = getelementptr inbounds nuw i64, ptr %7, i64 %11
  %13 = load i64, ptr %12, align 8, !tbaa !42
  %14 = inttoptr i64 %13 to ptr
  %15 = load ptr, ptr %4, align 8, !tbaa !40
  store ptr %14, ptr %15, align 8, !tbaa !40
  %16 = load ptr, ptr %3, align 8, !tbaa !68
  %17 = getelementptr inbounds nuw %struct.cdeque, ptr %16, i32 0, i32 0
  %18 = load i16, ptr %17, align 8, !tbaa !73
  %19 = zext i16 %18 to i32
  %20 = add nsw i32 %19, 1
  %21 = load ptr, ptr %3, align 8, !tbaa !68
  %22 = getelementptr inbounds nuw %struct.cdeque, ptr %21, i32 0, i32 2
  %23 = load i16, ptr %22, align 4, !tbaa !70
  %24 = zext i16 %23 to i32
  %25 = and i32 %20, %24
  %26 = trunc i32 %25 to i16
  %27 = load ptr, ptr %3, align 8, !tbaa !68
  %28 = getelementptr inbounds nuw %struct.cdeque, ptr %27, i32 0, i32 0
  store i16 %26, ptr %28, align 8, !tbaa !73
  %29 = load ptr, ptr %3, align 8, !tbaa !68
  %30 = getelementptr inbounds nuw %struct.cdeque, ptr %29, i32 0, i32 3
  %31 = load i16, ptr %30, align 2, !tbaa !72
  %32 = add i16 %31, -1
  store i16 %32, ptr %30, align 2, !tbaa !72
  ret void
}

; Function Attrs: nounwind uwtable
define internal void @cdeque_clear(ptr noundef %0) #0 {
  %2 = alloca ptr, align 8
  store ptr %0, ptr %2, align 8, !tbaa !68
  %3 = load ptr, ptr %2, align 8, !tbaa !68
  %4 = getelementptr inbounds nuw %struct.cdeque, ptr %3, i32 0, i32 3
  store i16 0, ptr %4, align 2, !tbaa !72
  %5 = load ptr, ptr %2, align 8, !tbaa !68
  %6 = getelementptr inbounds nuw %struct.cdeque, ptr %5, i32 0, i32 0
  store i16 0, ptr %6, align 8, !tbaa !73
  %7 = load ptr, ptr %2, align 8, !tbaa !68
  %8 = getelementptr inbounds nuw %struct.cdeque, ptr %7, i32 0, i32 1
  store i16 0, ptr %8, align 2, !tbaa !74
  ret void
}

; Function Attrs: nounwind uwtable
define internal i32 @cdeque_pop_front(ptr noundef %0, ptr noundef %1) #0 {
  %3 = alloca i32, align 4
  %4 = alloca ptr, align 8
  %5 = alloca ptr, align 8
  store ptr %0, ptr %4, align 8, !tbaa !68
  store ptr %1, ptr %5, align 8, !tbaa !40
  %6 = load ptr, ptr %4, align 8, !tbaa !68
  %7 = icmp ne ptr %6, null
  br i1 %7, label %8, label %11

8:                                                ; preds = %2
  %9 = load ptr, ptr %5, align 8, !tbaa !40
  %10 = icmp ne ptr %9, null
  br i1 %10, label %12, label %11

11:                                               ; preds = %8, %2
  store i32 2, ptr %3, align 4
  br label %22

12:                                               ; preds = %8
  %13 = load ptr, ptr %4, align 8, !tbaa !68
  %14 = getelementptr inbounds nuw %struct.cdeque, ptr %13, i32 0, i32 3
  %15 = load i16, ptr %14, align 2, !tbaa !72
  %16 = zext i16 %15 to i32
  %17 = icmp eq i32 %16, 0
  br i1 %17, label %18, label %19

18:                                               ; preds = %12
  store i32 3, ptr %3, align 4
  br label %22

19:                                               ; preds = %12
  %20 = load ptr, ptr %4, align 8, !tbaa !68
  %21 = load ptr, ptr %5, align 8, !tbaa !40
  call void @cdeque_pop_front_fast(ptr noundef %20, ptr noundef %21)
  store i32 0, ptr %3, align 4
  br label %22

22:                                               ; preds = %19, %18, %11
  %23 = load i32, ptr %3, align 4
  ret i32 %23
}

; Function Attrs: nounwind uwtable
define internal ptr @cdeque_filter_p(ptr noundef %0) #0 {
  %2 = alloca ptr, align 8
  store ptr %0, ptr %2, align 8, !tbaa !111
  %3 = load ptr, ptr %2, align 8, !tbaa !111
  %4 = ptrtoint ptr %3 to i64
  %5 = inttoptr i64 %4 to ptr
  ret ptr %5
}

; Function Attrs: nounwind uwtable
define internal i64 @cdeque_size(ptr noundef %0) #0 {
  %2 = alloca ptr, align 8
  store ptr %0, ptr %2, align 8, !tbaa !68
  %3 = load ptr, ptr %2, align 8, !tbaa !68
  %4 = getelementptr inbounds nuw %struct.cdeque, ptr %3, i32 0, i32 3
  %5 = load i16, ptr %4, align 2, !tbaa !72
  %6 = zext i16 %5 to i64
  ret i64 %6
}

; Function Attrs: nounwind uwtable
define internal void @cdeque_free(ptr noundef %0) #0 {
  %2 = alloca ptr, align 8
  store ptr %0, ptr %2, align 8, !tbaa !68
  %3 = load ptr, ptr %2, align 8, !tbaa !68
  %4 = icmp ne ptr %3, null
  br i1 %4, label %6, label %5

5:                                                ; preds = %1
  br label %24

6:                                                ; preds = %1
  %7 = load ptr, ptr %2, align 8, !tbaa !68
  %8 = getelementptr inbounds nuw %struct.cdeque, ptr %7, i32 0, i32 4
  %9 = load ptr, ptr %8, align 8, !tbaa !71
  %10 = icmp ne ptr %9, null
  br i1 %10, label %12, label %11

11:                                               ; preds = %6
  br label %24

12:                                               ; preds = %6
  %13 = load ptr, ptr %2, align 8, !tbaa !68
  %14 = getelementptr inbounds nuw %struct.cdeque, ptr %13, i32 0, i32 4
  %15 = load ptr, ptr %14, align 8, !tbaa !71
  call void @free(ptr noundef %15) #11
  %16 = load ptr, ptr %2, align 8, !tbaa !68
  %17 = getelementptr inbounds nuw %struct.cdeque, ptr %16, i32 0, i32 4
  store ptr null, ptr %17, align 8, !tbaa !71
  %18 = load ptr, ptr %2, align 8, !tbaa !68
  %19 = getelementptr inbounds nuw %struct.cdeque, ptr %18, i32 0, i32 0
  store i16 -1, ptr %19, align 8, !tbaa !73
  %20 = load ptr, ptr %2, align 8, !tbaa !68
  %21 = getelementptr inbounds nuw %struct.cdeque, ptr %20, i32 0, i32 1
  store i16 -1, ptr %21, align 2, !tbaa !74
  %22 = load ptr, ptr %2, align 8, !tbaa !68
  %23 = getelementptr inbounds nuw %struct.cdeque, ptr %22, i32 0, i32 2
  store i16 0, ptr %23, align 4, !tbaa !70
  br label %24

24:                                               ; preds = %12, %11, %5
  ret void
}

; Function Attrs: nounwind uwtable
define internal void @free_filters(ptr noundef %0) #0 {
  %2 = alloca ptr, align 8
  %3 = alloca ptr, align 8
  %4 = alloca ptr, align 8
  store ptr %0, ptr %2, align 8, !tbaa !11
  call void @llvm.lifetime.start.p0(i64 8, ptr %3) #11
  %5 = load ptr, ptr %2, align 8, !tbaa !11
  %6 = getelementptr inbounds nuw %struct.rar5, ptr %5, i32 0, i32 8
  %7 = getelementptr inbounds nuw %struct.comp_state, ptr %6, i32 0, i32 20
  store ptr %7, ptr %3, align 8, !tbaa !68
  br label %8

8:                                                ; preds = %19, %1
  %9 = load ptr, ptr %3, align 8, !tbaa !68
  %10 = call i64 @cdeque_size(ptr noundef %9)
  %11 = icmp ugt i64 %10, 0
  br i1 %11, label %12, label %20

12:                                               ; preds = %8
  call void @llvm.lifetime.start.p0(i64 8, ptr %4) #11
  store ptr null, ptr %4, align 8, !tbaa !106
  %13 = load ptr, ptr %3, align 8, !tbaa !68
  %14 = call ptr @cdeque_filter_p(ptr noundef %4)
  %15 = call i32 @cdeque_pop_front(ptr noundef %13, ptr noundef %14)
  %16 = icmp eq i32 0, %15
  br i1 %16, label %17, label %19

17:                                               ; preds = %12
  %18 = load ptr, ptr %4, align 8, !tbaa !106
  call void @free(ptr noundef %18) #11
  br label %19

19:                                               ; preds = %17, %12
  call void @llvm.lifetime.end.p0(i64 8, ptr %4) #11
  br label %8, !llvm.loop !108

20:                                               ; preds = %8
  %21 = load ptr, ptr %3, align 8, !tbaa !68
  call void @cdeque_clear(ptr noundef %21)
  %22 = load ptr, ptr %2, align 8, !tbaa !11
  %23 = getelementptr inbounds nuw %struct.rar5, ptr %22, i32 0, i32 8
  %24 = getelementptr inbounds nuw %struct.comp_state, ptr %23, i32 0, i32 21
  store i64 0, ptr %24, align 8, !tbaa !109
  %25 = load ptr, ptr %2, align 8, !tbaa !11
  %26 = getelementptr inbounds nuw %struct.rar5, ptr %25, i32 0, i32 8
  %27 = getelementptr inbounds nuw %struct.comp_state, ptr %26, i32 0, i32 22
  store i64 0, ptr %27, align 8, !tbaa !110
  call void @llvm.lifetime.end.p0(i64 8, ptr %3) #11
  ret void
}

; Function Attrs: nounwind uwtable
define internal void @clear_data_ready_stack(ptr noundef %0) #0 {
  %2 = alloca ptr, align 8
  store ptr %0, ptr %2, align 8, !tbaa !11
  %3 = load ptr, ptr %2, align 8, !tbaa !11
  %4 = getelementptr inbounds nuw %struct.rar5, ptr %3, i32 0, i32 8
  %5 = getelementptr inbounds nuw %struct.comp_state, ptr %4, i32 0, i32 24
  call void @llvm.memset.p0.i64(ptr align 8 %5, i8 0, i64 64, i1 false)
  ret void
}

; Function Attrs: inlinehint nounwind uwtable
define internal ptr @get_context(ptr noundef %0) #2 {
  %2 = alloca ptr, align 8
  store ptr %0, ptr %2, align 8, !tbaa !13
  %3 = load ptr, ptr %2, align 8, !tbaa !13
  %4 = getelementptr inbounds nuw %struct.archive_read, ptr %3, i32 0, i32 13
  %5 = load ptr, ptr %4, align 8, !tbaa !52
  %6 = getelementptr inbounds nuw %struct.archive_format_descriptor, ptr %5, i32 0, i32 0
  %7 = load ptr, ptr %6, align 8, !tbaa !66
  ret ptr %7
}

; Function Attrs: nounwind uwtable
define internal i32 @rar5_cleanup(ptr noundef %0) #0 {
  %2 = alloca ptr, align 8
  %3 = alloca ptr, align 8
  store ptr %0, ptr %2, align 8, !tbaa !13
  call void @llvm.lifetime.start.p0(i64 8, ptr %3) #11
  %4 = load ptr, ptr %2, align 8, !tbaa !13
  %5 = call ptr @get_context(ptr noundef %4)
  store ptr %5, ptr %3, align 8, !tbaa !11
  %6 = load ptr, ptr %3, align 8, !tbaa !11
  %7 = getelementptr inbounds nuw %struct.rar5, ptr %6, i32 0, i32 8
  %8 = getelementptr inbounds nuw %struct.comp_state, ptr %7, i32 0, i32 5
  %9 = load ptr, ptr %8, align 8, !tbaa !49
  call void @free(ptr noundef %9) #11
  %10 = load ptr, ptr %3, align 8, !tbaa !11
  %11 = getelementptr inbounds nuw %struct.rar5, ptr %10, i32 0, i32 8
  %12 = getelementptr inbounds nuw %struct.comp_state, ptr %11, i32 0, i32 6
  %13 = load ptr, ptr %12, align 8, !tbaa !50
  call void @free(ptr noundef %13) #11
  %14 = load ptr, ptr %3, align 8, !tbaa !11
  call void @clear_data_ready_stack(ptr noundef %14)
  %15 = load ptr, ptr %3, align 8, !tbaa !11
  %16 = getelementptr inbounds nuw %struct.rar5, ptr %15, i32 0, i32 11
  %17 = getelementptr inbounds nuw %struct.multivolume, ptr %16, i32 0, i32 1
  %18 = load ptr, ptr %17, align 8, !tbaa !51
  call void @free(ptr noundef %18) #11
  %19 = load ptr, ptr %3, align 8, !tbaa !11
  call void @free_filters(ptr noundef %19)
  %20 = load ptr, ptr %3, align 8, !tbaa !11
  %21 = getelementptr inbounds nuw %struct.rar5, ptr %20, i32 0, i32 8
  %22 = getelementptr inbounds nuw %struct.comp_state, ptr %21, i32 0, i32 20
  call void @cdeque_free(ptr noundef %22)
  %23 = load ptr, ptr %3, align 8, !tbaa !11
  call void @free(ptr noundef %23) #11
  %24 = load ptr, ptr %2, align 8, !tbaa !13
  %25 = getelementptr inbounds nuw %struct.archive_read, ptr %24, i32 0, i32 13
  %26 = load ptr, ptr %25, align 8, !tbaa !52
  %27 = getelementptr inbounds nuw %struct.archive_format_descriptor, ptr %26, i32 0, i32 0
  store ptr null, ptr %27, align 8, !tbaa !66
  call void @llvm.lifetime.end.p0(i64 8, ptr %3) #11
  ret i32 0
}