; Function Attrs: nounwind uwtable
define internal noundef i32 @rar5_cleanup(ptr noundef readonly captures(none) %0) #0 {
  %2 = getelementptr i8, ptr %0, i64 2072
  %.val = load ptr, ptr %2, align 8, !tbaa !31
  %.val.val = load ptr, ptr %.val, align 8, !tbaa !46
  %3 = getelementptr inbounds nuw i8, ptr %.val.val, i64 80
  %4 = load ptr, ptr %3, align 8, !tbaa !69
  tail call void @free(ptr noundef %4) #15
  %5 = getelementptr inbounds nuw i8, ptr %.val.val, i64 88
  %6 = load ptr, ptr %5, align 8, !tbaa !70
  tail call void @free(ptr noundef %6) #15
  %7 = getelementptr inbounds nuw i8, ptr %.val.val, i64 19304
  tail call void @llvm.memset.p0.i64(ptr noundef nonnull align 8 dereferenceable(64) %7, i8 0, i64 64, i1 false)
  %8 = getelementptr inbounds nuw i8, ptr %.val.val, i64 21280
  %9 = load ptr, ptr %8, align 8, !tbaa !71
  tail call void @free(ptr noundef %9) #15
  %10 = getelementptr inbounds nuw i8, ptr %.val.val, i64 19256
  %11 = getelementptr i8, ptr %.val.val, i64 19262
  %.val9.i = load i16, ptr %11, align 2, !tbaa !72
  %.not10.i = icmp eq i16 %.val9.i, 0
  br i1 %.not10.i, label %free_filters.exit, label %cdeque_pop_front.exit.lr.ph.i

cdeque_pop_front.exit.lr.ph.i:                    ; preds = %1
  %12 = getelementptr inbounds nuw i8, ptr %.val.val, i64 19264
  %13 = getelementptr inbounds nuw i8, ptr %.val.val, i64 19260
  br label %cdeque_pop_front.exit.i

cdeque_pop_front.exit.i:                          ; preds = %cdeque_pop_front.exit.i, %cdeque_pop_front.exit.lr.ph.i
  %.val11.i = phi i16 [ %.val9.i, %cdeque_pop_front.exit.lr.ph.i ], [ %.val.i, %cdeque_pop_front.exit.i ]
  %14 = load ptr, ptr %12, align 8, !tbaa !11
  %15 = load i16, ptr %10, align 8, !tbaa !73
  %16 = zext i16 %15 to i64
  %17 = getelementptr inbounds nuw i64, ptr %14, i64 %16
  %18 = load i64, ptr %17, align 8, !tbaa !29
  %19 = inttoptr i64 %18 to ptr
  %20 = add i16 %15, 1
  %21 = load i16, ptr %13, align 4, !tbaa !4
  %22 = and i16 %21, %20
  store i16 %22, ptr %10, align 8, !tbaa !73
  %23 = add i16 %.val11.i, -1
  store i16 %23, ptr %11, align 2, !tbaa !72
  tail call void @free(ptr noundef %19) #15
  %.val.i = load i16, ptr %11, align 2, !tbaa !72
  %.not.i = icmp eq i16 %.val.i, 0
  br i1 %.not.i, label %free_filters.exit, label %cdeque_pop_front.exit.i, !llvm.loop !74

free_filters.exit:                                ; preds = %cdeque_pop_front.exit.i, %1
  store i16 0, ptr %11, align 2, !tbaa !72
  store i16 0, ptr %10, align 8, !tbaa !73
  %24 = getelementptr inbounds nuw i8, ptr %.val.val, i64 19258
  store i16 0, ptr %24, align 2, !tbaa !75
  %25 = getelementptr inbounds nuw i8, ptr %.val.val, i64 19272
  tail call void @llvm.memset.p0.i64(ptr noundef nonnull align 8 dereferenceable(16) %25, i8 0, i64 16, i1 false)
  %26 = getelementptr inbounds nuw i8, ptr %.val.val, i64 19264
  %27 = load ptr, ptr %26, align 8, !tbaa !11
  %.not8.i = icmp eq ptr %27, null
  br i1 %.not8.i, label %cdeque_free.exit, label %28

28:                                               ; preds = %free_filters.exit
  tail call void @free(ptr noundef nonnull %27) #15
  br label %cdeque_free.exit

cdeque_free.exit:                                 ; preds = %free_filters.exit, %28
  tail call void @free(ptr noundef nonnull %.val.val) #15
  %29 = load ptr, ptr %2, align 8, !tbaa !31
  store ptr null, ptr %29, align 8, !tbaa !46
  ret i32 0
}